; Function Attrs: mustprogress uwtable
define hidden void @_ZN4cvc58internal6theory15DecisionManagerC2EPNS_7context7ContextE(ptr noundef nonnull align 8 dereferenceable(184) initializes((8, 12), (16, 24)) %0, ptr noundef %1) unnamed_addr #3 align 2 personality ptr @__gxx_personality_v0 {
  %3 = getelementptr inbounds nuw i8, ptr %0, i64 8
  store i32 0, ptr %3, align 8, !tbaa !3
  %4 = getelementptr inbounds nuw i8, ptr %0, i64 16
  store ptr null, ptr %4, align 8, !tbaa !12
  %5 = getelementptr inbounds nuw i8, ptr %0, i64 24
  store ptr %3, ptr %5, align 8, !tbaa !13
  %6 = getelementptr inbounds nuw i8, ptr %0, i64 32
  store ptr %3, ptr %6, align 8, !tbaa !14
  %7 = getelementptr inbounds nuw i8, ptr %0, i64 40
  store i64 0, ptr %7, align 8, !tbaa !15
  %8 = getelementptr inbounds nuw i8, ptr %0, i64 48
  invoke void @_ZN4cvc57context10ContextObjC2EPNS0_7ContextE(ptr noundef nonnull align 8 dereferenceable(74) %8, ptr noundef %1)
          to label %9 unwind label %18

9:                                                ; preds = %2
  store ptr getelementptr inbounds nuw inrange(-16, 32) (i8, ptr @_ZTVN4cvc57context6CDListIPNS_8internal6theory16DecisionStrategyENS0_14DefaultCleanUpIS5_EESaIS5_EEE, i64 16), ptr %8, align 8, !tbaa !16
  %10 = getelementptr inbounds nuw i8, ptr %0, i64 88
  %11 = getelementptr inbounds nuw i8, ptr %0, i64 120
  tail call void @llvm.memset.p0.i64(ptr noundef nonnull align 8 dereferenceable(32) %10, i8 0, i64 32, i1 false)
  store i8 1, ptr %11, align 8, !tbaa !18
  %12 = getelementptr inbounds nuw i8, ptr %0, i64 128
  %13 = getelementptr inbounds nuw i8, ptr %0, i64 176
  store ptr %13, ptr %12, align 8, !tbaa !31
  %14 = getelementptr inbounds nuw i8, ptr %0, i64 136
  store i64 1, ptr %14, align 8, !tbaa !38
  %15 = getelementptr inbounds nuw i8, ptr %0, i64 144
  %16 = getelementptr inbounds nuw i8, ptr %0, i64 160
  tail call void @llvm.memset.p0.i64(ptr noundef nonnull align 8 dereferenceable(16) %15, i8 0, i64 16, i1 false)
  store float 1.000000e+00, ptr %16, align 8, !tbaa !39
  %17 = getelementptr inbounds nuw i8, ptr %0, i64 168
  tail call void @llvm.memset.p0.i64(ptr noundef nonnull align 8 dereferenceable(16) %17, i8 0, i64 16, i1 false)
  ret void

18:                                               ; preds = %2
  %19 = landingpad { ptr, i32 }
          cleanup
  tail call void @_ZNSt3mapIN4cvc58internal6theory15DecisionManager10StrategyIdESt6vectorIPNS2_16DecisionStrategyESaIS7_EESt4lessIS4_ESaISt4pairIKS4_S9_EEED2Ev(ptr noundef nonnull align 8 dereferenceable(48) %0) #22
  resume { ptr, i32 } %19
}